target datalayout = "e-m:e-p270:32:32-p271:32:32-p272:64:64-i64:64-i128:128-f80:128-n8:16:32:64-S128"
target triple = "x86_64-pc-linux-gnu"

%"struct.std::once_flag" = type { i32 }
%"class.duckdb_re2::Regexp" = type { i8, i8, i16, i16, i16, %union.anon, ptr, %union.anon.0 }
%union.anon = type { ptr }
%union.anon.0 = type { %struct.anon.1 }
%struct.anon.1 = type { i32, ptr }
%"struct.std::_Rb_tree_header" = type { %"struct.std::_Rb_tree_node_base", i64 }
%"struct.std::_Rb_tree_node_base" = type { i32, ptr, ptr, ptr }
%"class.duckdb_re2::MutexLock" = type { ptr }
%"struct.duckdb_re2::RefStorage" = type { %"class.duckdb_re2::Mutex", %"class.std::map" }
%"class.duckdb_re2::Mutex" = type { %union.pthread_rwlock_t }
%union.pthread_rwlock_t = type { %struct.__pthread_rwlock_arch_t }
%struct.__pthread_rwlock_arch_t = type { i32, i32, i32, i32, i32, i32, i32, i32, i8, [7 x i8], i64, i32 }
%"class.std::map" = type { %"class.std::_Rb_tree.8" }
%"class.std::_Rb_tree.8" = type { %"struct.std::_Rb_tree<duckdb_re2::Regexp *, std::pair<duckdb_re2::Regexp *const, int>, std::_Select1st<std::pair<duckdb_re2::Regexp *const, int>>, std::less<duckdb_re2::Regexp *>>::_Rb_tree_impl" }
%"struct.std::_Rb_tree<duckdb_re2::Regexp *, std::pair<duckdb_re2::Regexp *const, int>, std::_Select1st<std::pair<duckdb_re2::Regexp *const, int>>, std::less<duckdb_re2::Regexp *>>::_Rb_tree_impl" = type { [8 x i8], %"struct.std::_Rb_tree_header" }
%class.anon = type { i8 }
%class.anon.81 = type { ptr }
%"struct.std::once_flag::_Prepare_execution" = type { i8 }
%class.anon.82 = type { i8 }

@_ZZN10duckdb_re26Regexp6IncrefEvE8ref_once = internal global %"struct.std::once_flag" zeroinitializer, align 4
@_ZN10duckdb_re2L11ref_storageE = internal global [104 x i8] zeroinitializer, align 8
@.str.4 = private unnamed_addr constant [20 x i8] c"RE2 pthread failure\00", align 1
@_ZTISt13runtime_error = external constant ptr
@_ZSt15__once_callable = external thread_local global ptr, align 8
@_ZSt11__once_call = external thread_local global ptr, align 8

; Function Attrs: inlinehint mustprogress nounwind uwtable
define internal noundef i32 @_ZL18__gthread_active_pv() #7 {
  ret i32 1
}

; Function Attrs: inlinehint mustprogress nounwind uwtable
define internal noundef ptr @"_ZZNSt9once_flag18_Prepare_executionC1IZSt9call_onceIZN10duckdb_re26Regexp6IncrefEvE3$_0JEEvRS_OT_DpOT0_EUlvE_EERS7_ENKUlvE_cvPFvvEEv"(ptr noundef nonnull align 1 dereferenceable(1) %0) #7 align 2 {
  %2 = alloca ptr, align 8
  store ptr %0, ptr %2, align 8, !tbaa !69
  ret ptr @"_ZZNSt9once_flag18_Prepare_executionC1IZSt9call_onceIZN10duckdb_re26Regexp6IncrefEvE3$_0JEEvRS_OT_DpOT0_EUlvE_EERS7_ENUlvE_8__invokeEv"
}

; Function Attrs: inlinehint mustprogress uwtable
define linkonce_odr hidden void @_ZN10duckdb_re25Mutex4LockEv(ptr noundef nonnull align 8 dereferenceable(56) %0) #2 comdat align 2 personality ptr @__gxx_personality_v0 {
  %2 = alloca ptr, align 8
  %3 = alloca ptr, align 8
  %4 = alloca i32, align 4
  store ptr %0, ptr %2, align 8, !tbaa !54
  %5 = load ptr, ptr %2, align 8
  br label %6

6:                                                ; preds = %1
  %7 = getelementptr inbounds nuw %"class.duckdb_re2::Mutex", ptr %5, i32 0, i32 0
  %8 = call i32 @pthread_rwlock_wrlock(ptr noundef %7) #18
  %9 = icmp ne i32 %8, 0
  br i1 %9, label %10, label %17

10:                                               ; preds = %6
  %11 = call ptr @__cxa_allocate_exception(i64 16) #18
  invoke void @_ZNSt13runtime_errorC1EPKc(ptr noundef nonnull align 8 dereferenceable(16) %11, ptr noundef @.str.4)
          to label %12 unwind label %13

12:                                               ; preds = %10
  call void @__cxa_throw(ptr %11, ptr @_ZTISt13runtime_error, ptr @_ZNSt13runtime_errorD1Ev) #21
  unreachable

13:                                               ; preds = %10
  %14 = landingpad { ptr, i32 }
          cleanup
  %15 = extractvalue { ptr, i32 } %14, 0
  store ptr %15, ptr %3, align 8
  %16 = extractvalue { ptr, i32 } %14, 1
  store i32 %16, ptr %4, align 4
  call void @__cxa_free_exception(ptr %11) #18
  br label %19

17:                                               ; preds = %6
  br label %18

18:                                               ; preds = %17
  ret void

19:                                               ; preds = %13
  %20 = load ptr, ptr %3, align 8
  %21 = load i32, ptr %4, align 4
  %22 = insertvalue { ptr, i32 } poison, ptr %20, 0
  %23 = insertvalue { ptr, i32 } %22, i32 %21, 1
  resume { ptr, i32 } %23
}

; Function Attrs: mustprogress nounwind uwtable
define linkonce_odr void @_ZNSt9once_flag18_Prepare_executionD2Ev(ptr noundef nonnull align 1 dereferenceable(1) %0) unnamed_addr #0 comdat align 2 {
  %2 = alloca ptr, align 8
  store ptr %0, ptr %2, align 8, !tbaa !485
  %3 = call align 8 ptr @llvm.threadlocal.address.p0(ptr align 8 @_ZSt15__once_callable)
  store ptr null, ptr %3, align 8, !tbaa !69
  %4 = call align 8 ptr @llvm.threadlocal.address.p0(ptr align 8 @_ZSt11__once_call)
  store ptr null, ptr %4, align 8, !tbaa !69
  ret void
}

; Function Attrs: inlinehint mustprogress uwtable
define internal noundef i32 @_ZL14__gthread_oncePiPFvvE(ptr noundef %0, ptr noundef %1) #2 {
  %3 = alloca i32, align 4
  %4 = alloca ptr, align 8
  %5 = alloca ptr, align 8
  store ptr %0, ptr %4, align 8, !tbaa !74
  store ptr %1, ptr %5, align 8, !tbaa !69
  %6 = call noundef i32 @_ZL18__gthread_active_pv()
  %7 = icmp ne i32 %6, 0
  br i1 %7, label %8, label %12

8:                                                ; preds = %2
  %9 = load ptr, ptr %4, align 8, !tbaa !74
  %10 = load ptr, ptr %5, align 8, !tbaa !69
  %11 = call i32 @pthread_once(ptr noundef %9, ptr noundef %10)
  store i32 %11, ptr %3, align 4
  br label %13

12:                                               ; preds = %2
  store i32 -1, ptr %3, align 4
  br label %13

13:                                               ; preds = %12, %8
  %14 = load i32, ptr %3, align 4
  ret i32 %14
}

; Function Attrs: mustprogress nounwind uwtable
define internal void @"_ZNSt9once_flag18_Prepare_executionC2IZSt9call_onceIZN10duckdb_re26Regexp6IncrefEvE3$_0JEEvRS_OT_DpOT0_EUlvE_EERS7_"(ptr noundef nonnull align 1 dereferenceable(1) %0, ptr noundef nonnull align 8 dereferenceable(8) %1) unnamed_addr #0 align 2 {
  %3 = alloca ptr, align 8
  %4 = alloca ptr, align 8
  %5 = alloca %class.anon.82, align 1
  store ptr %0, ptr %3, align 8, !tbaa !485
  store ptr %1, ptr %4, align 8, !tbaa !69
  %6 = load ptr, ptr %4, align 8, !tbaa !69
  %7 = call align 8 ptr @llvm.threadlocal.address.p0(ptr align 8 @_ZSt15__once_callable)
  store ptr %6, ptr %7, align 8, !tbaa !69
  call void @llvm.lifetime.start.p0(i64 1, ptr %5) #18
  %8 = call noundef ptr @"_ZZNSt9once_flag18_Prepare_executionC1IZSt9call_onceIZN10duckdb_re26Regexp6IncrefEvE3$_0JEEvRS_OT_DpOT0_EUlvE_EERS7_ENKUlvE_cvPFvvEEv"(ptr noundef nonnull align 1 dereferenceable(1) %5) #18
  %9 = call align 8 ptr @llvm.threadlocal.address.p0(ptr align 8 @_ZSt11__once_call)
  store ptr %8, ptr %9, align 8, !tbaa !69
  call void @llvm.lifetime.end.p0(i64 1, ptr %5) #18
  ret void
}

; Function Attrs: inlinehint mustprogress nounwind uwtable
define internal noundef ptr @_ZN10duckdb_re2L7ref_mapEv() #7 {
  ret ptr getelementptr inbounds nuw (%"struct.duckdb_re2::RefStorage", ptr @_ZN10duckdb_re2L11ref_storageE, i32 0, i32 1)
}

; Function Attrs: mustprogress uwtable
define linkonce_odr hidden void @_ZN10duckdb_re29MutexLockC2EPNS_5MutexE(ptr noundef nonnull align 8 dereferenceable(8) %0, ptr noundef %1) unnamed_addr #4 comdat align 2 {
  %3 = alloca ptr, align 8
  %4 = alloca ptr, align 8
  store ptr %0, ptr %3, align 8, !tbaa !52
  store ptr %1, ptr %4, align 8, !tbaa !54
  %5 = load ptr, ptr %3, align 8
  %6 = getelementptr inbounds nuw %"class.duckdb_re2::MutexLock", ptr %5, i32 0, i32 0
  %7 = load ptr, ptr %4, align 8, !tbaa !54
  store ptr %7, ptr %6, align 8, !tbaa !56
  %8 = getelementptr inbounds nuw %"class.duckdb_re2::MutexLock", ptr %5, i32 0, i32 0
  %9 = load ptr, ptr %8, align 8, !tbaa !56
  call void @_ZN10duckdb_re25Mutex4LockEv(ptr noundef nonnull align 8 dereferenceable(56) %9)
  ret void
}

; Function Attrs: inlinehint mustprogress nounwind uwtable
define internal noundef ptr @_ZN10duckdb_re2L9ref_mutexEv() #7 {
  ret ptr @_ZN10duckdb_re2L11ref_storageE
}

; Function Attrs: mustprogress uwtable
define internal void @"_ZSt9call_onceIZN10duckdb_re26Regexp6IncrefEvE3$_0JEEvRSt9once_flagOT_DpOT0_"(ptr noundef nonnull align 4 dereferenceable(4) %0, ptr noundef nonnull align 1 dereferenceable(1) %1) #4 personality ptr @__gxx_personality_v0 {
  %3 = alloca ptr, align 8
  %4 = alloca ptr, align 8
  %5 = alloca %class.anon.81, align 8
  %6 = alloca %"struct.std::once_flag::_Prepare_execution", align 1
  %7 = alloca i32, align 4
  %8 = alloca ptr, align 8
  %9 = alloca i32, align 4
  store ptr %0, ptr %3, align 8, !tbaa !67
  store ptr %1, ptr %4, align 8, !tbaa !69
  call void @llvm.lifetime.start.p0(i64 8, ptr %5) #18
  %10 = getelementptr inbounds nuw %class.anon.81, ptr %5, i32 0, i32 0
  %11 = load ptr, ptr %4, align 8, !tbaa !69
  store ptr %11, ptr %10, align 8, !tbaa !69
  call void @llvm.lifetime.start.p0(i64 1, ptr %6) #18
  call void @"_ZNSt9once_flag18_Prepare_executionC2IZSt9call_onceIZN10duckdb_re26Regexp6IncrefEvE3$_0JEEvRS_OT_DpOT0_EUlvE_EERS7_"(ptr noundef nonnull align 1 dereferenceable(1) %6, ptr noundef nonnull align 8 dereferenceable(8) %5)
  call void @llvm.lifetime.start.p0(i64 4, ptr %7) #18
  %12 = load ptr, ptr %3, align 8, !tbaa !67
  %13 = getelementptr inbounds nuw %"struct.std::once_flag", ptr %12, i32 0, i32 0
  %14 = invoke noundef i32 @_ZL14__gthread_oncePiPFvvE(ptr noundef %13, ptr noundef @__once_proxy)
          to label %15 unwind label %21

15:                                               ; preds = %2
  store i32 %14, ptr %7, align 4, !tbaa !29
  %16 = load i32, ptr %7, align 4, !tbaa !29
  %17 = icmp ne i32 %16, 0
  br i1 %17, label %18, label %25

18:                                               ; preds = %15
  %19 = load i32, ptr %7, align 4, !tbaa !29
  invoke void @_ZSt20__throw_system_errori(i32 noundef %19) #21
          to label %20 unwind label %21

20:                                               ; preds = %18
  unreachable

21:                                               ; preds = %18, %2
  %22 = landingpad { ptr, i32 }
          cleanup
  %23 = extractvalue { ptr, i32 } %22, 0
  store ptr %23, ptr %8, align 8
  %24 = extractvalue { ptr, i32 } %22, 1
  store i32 %24, ptr %9, align 4
  call void @llvm.lifetime.end.p0(i64 4, ptr %7) #18
  call void @_ZNSt9once_flag18_Prepare_executionD2Ev(ptr noundef nonnull align 1 dereferenceable(1) %6) #18
  call void @llvm.lifetime.end.p0(i64 1, ptr %6) #18
  call void @llvm.lifetime.end.p0(i64 8, ptr %5) #18
  br label %26

25:                                               ; preds = %15
  call void @llvm.lifetime.end.p0(i64 4, ptr %7) #18
  call void @_ZNSt9once_flag18_Prepare_executionD2Ev(ptr noundef nonnull align 1 dereferenceable(1) %6) #18
  call void @llvm.lifetime.end.p0(i64 1, ptr %6) #18
  call void @llvm.lifetime.end.p0(i64 8, ptr %5) #18
  ret void

26:                                               ; preds = %21
  %27 = load ptr, ptr %8, align 8
  %28 = load i32, ptr %9, align 4
  %29 = insertvalue { ptr, i32 } poison, ptr %27, 0
  %30 = insertvalue { ptr, i32 } %29, i32 %28, 1
  resume { ptr, i32 } %30
}

; Function Attrs: mustprogress uwtable
define hidden noundef ptr @_ZN10duckdb_re26Regexp6IncrefEv(ptr noundef nonnull align 8 dereferenceable(40) %0) #4 align 2 personality ptr @__gxx_personality_v0 {
  %2 = alloca ptr, align 8
  %3 = alloca ptr, align 8
  %4 = alloca %class.anon, align 1
  %5 = alloca %"class.duckdb_re2::MutexLock", align 8
  %6 = alloca ptr, align 8
  %7 = alloca i32, align 4
  %8 = alloca ptr, align 8
  %9 = alloca ptr, align 8
  store ptr %0, ptr %3, align 8, !tbaa !3
  %10 = load ptr, ptr %3, align 8
  %11 = getelementptr inbounds nuw %"class.duckdb_re2::Regexp", ptr %10, i32 0, i32 3
  %12 = load i16, ptr %11, align 4, !tbaa !17
  %13 = zext i16 %12 to i32
  %14 = icmp sge i32 %13, 65534
  br i1 %14, label %15, label %48

15:                                               ; preds = %1
  call void @llvm.lifetime.start.p0(i64 1, ptr %4) #18
  call void @"_ZSt9call_onceIZN10duckdb_re26Regexp6IncrefEvE3$_0JEEvRSt9once_flagOT_DpOT0_"(ptr noundef nonnull align 4 dereferenceable(4) @_ZZN10duckdb_re26Regexp6IncrefEvE8ref_once, ptr noundef nonnull align 1 dereferenceable(1) %4)
  call void @llvm.lifetime.end.p0(i64 1, ptr %4) #18
  call void @llvm.lifetime.start.p0(i64 8, ptr %5) #18
  %16 = call noundef ptr @_ZN10duckdb_re2L9ref_mutexEv()
  call void @_ZN10duckdb_re29MutexLockC2EPNS_5MutexE(ptr noundef nonnull align 8 dereferenceable(8) %5, ptr noundef %16)
  %17 = getelementptr inbounds nuw %"class.duckdb_re2::Regexp", ptr %10, i32 0, i32 3
  %18 = load i16, ptr %17, align 4, !tbaa !17
  %19 = zext i16 %18 to i32
  %20 = icmp eq i32 %19, 65535
  br i1 %20, label %21, label %36

21:                                               ; preds = %15
  %22 = invoke noundef ptr @_ZN10duckdb_re2L7ref_mapEv()
          to label %23 unwind label %28

23:                                               ; preds = %21
  call void @llvm.lifetime.start.p0(i64 8, ptr %8) #18
  store ptr %10, ptr %8, align 8, !tbaa !3
  %24 = invoke noundef nonnull align 4 dereferenceable(4) ptr @_ZNSt3mapIPN10duckdb_re26RegexpEiSt4lessIS2_ESaISt4pairIKS2_iEEEixEOS2_(ptr noundef nonnull align 8 dereferenceable(48) %22, ptr noundef nonnull align 8 dereferenceable(8) %8)
          to label %25 unwind label %32

25:                                               ; preds = %23
  %26 = load i32, ptr %24, align 4, !tbaa !29
  %27 = add nsw i32 %26, 1
  store i32 %27, ptr %24, align 4, !tbaa !29
  call void @llvm.lifetime.end.p0(i64 8, ptr %8) #18
  br label %46

28:                                               ; preds = %36, %21
  %29 = landingpad { ptr, i32 }
          cleanup
  %30 = extractvalue { ptr, i32 } %29, 0
  store ptr %30, ptr %6, align 8
  %31 = extractvalue { ptr, i32 } %29, 1
  store i32 %31, ptr %7, align 4
  br label %47

32:                                               ; preds = %23
  %33 = landingpad { ptr, i32 }
          cleanup
  %34 = extractvalue { ptr, i32 } %33, 0
  store ptr %34, ptr %6, align 8
  %35 = extractvalue { ptr, i32 } %33, 1
  store i32 %35, ptr %7, align 4
  call void @llvm.lifetime.end.p0(i64 8, ptr %8) #18
  br label %47

36:                                               ; preds = %15
  %37 = invoke noundef ptr @_ZN10duckdb_re2L7ref_mapEv()
          to label %38 unwind label %28

38:                                               ; preds = %36
  call void @llvm.lifetime.start.p0(i64 8, ptr %9) #18
  store ptr %10, ptr %9, align 8, !tbaa !3
  %39 = invoke noundef nonnull align 4 dereferenceable(4) ptr @_ZNSt3mapIPN10duckdb_re26RegexpEiSt4lessIS2_ESaISt4pairIKS2_iEEEixEOS2_(ptr noundef nonnull align 8 dereferenceable(48) %37, ptr noundef nonnull align 8 dereferenceable(8) %9)
          to label %40 unwind label %42

40:                                               ; preds = %38
  store i32 65535, ptr %39, align 4, !tbaa !29
  call void @llvm.lifetime.end.p0(i64 8, ptr %9) #18
  %41 = getelementptr inbounds nuw %"class.duckdb_re2::Regexp", ptr %10, i32 0, i32 3
  store i16 -1, ptr %41, align 4, !tbaa !17
  br label %46

42:                                               ; preds = %38
  %43 = landingpad { ptr, i32 }
          cleanup
  %44 = extractvalue { ptr, i32 } %43, 0
  store ptr %44, ptr %6, align 8
  %45 = extractvalue { ptr, i32 } %43, 1
  store i32 %45, ptr %7, align 4
  call void @llvm.lifetime.end.p0(i64 8, ptr %9) #18
  br label %47

46:                                               ; preds = %40, %25
  store ptr %10, ptr %2, align 8
  call void @_ZN10duckdb_re29MutexLockD2Ev(ptr noundef nonnull align 8 dereferenceable(8) %5) #18
  call void @llvm.lifetime.end.p0(i64 8, ptr %5) #18
  br label %52

47:                                               ; preds = %42, %32, %28
  call void @_ZN10duckdb_re29MutexLockD2Ev(ptr noundef nonnull align 8 dereferenceable(8) %5) #18
  call void @llvm.lifetime.end.p0(i64 8, ptr %5) #18
  br label %54

48:                                               ; preds = %1
  %49 = getelementptr inbounds nuw %"class.duckdb_re2::Regexp", ptr %10, i32 0, i32 3
  %50 = load i16, ptr %49, align 4, !tbaa !17
  %51 = add i16 %50, 1
  store i16 %51, ptr %49, align 4, !tbaa !17
  store ptr %10, ptr %2, align 8
  br label %52

52:                                               ; preds = %48, %46
  %53 = load ptr, ptr %2, align 8
  ret ptr %53

54:                                               ; preds = %47
  %55 = load ptr, ptr %6, align 8
  %56 = load i32, ptr %7, align 4
  %57 = insertvalue { ptr, i32 } poison, ptr %55, 0
  %58 = insertvalue { ptr, i32 } %57, i32 %56, 1
  resume { ptr, i32 } %58
}