; Function Attrs: mustprogress uwtable
define hidden noundef nonnull ptr @_ZN10duckdb_re26Regexp6IncrefEv(ptr noundef nonnull returned align 8 dereferenceable(40) %0) local_unnamed_addr #7 align 2 personality ptr @__gxx_personality_v0 {
  %2 = alloca %class.anon.81, align 8
  %3 = alloca %class.anon, align 1
  %4 = alloca %"class.duckdb_re2::MutexLock", align 8
  %5 = alloca ptr, align 8
  %6 = alloca ptr, align 8
  %7 = getelementptr inbounds nuw i8, ptr %0, i64 4
  %8 = load i16, ptr %7, align 4, !tbaa !12
  %9 = icmp ugt i16 %8, -3
  br i1 %9, label %10, label %49

10:                                               ; preds = %1
  call void @llvm.lifetime.start.p0(i64 1, ptr nonnull %3) #27
  call void @llvm.lifetime.start.p0(i64 8, ptr nonnull %2) #27
  store ptr %3, ptr %2, align 8, !tbaa !51
  %11 = call align 8 ptr @llvm.threadlocal.address.p0(ptr align 8 @_ZSt15__once_callable)
  store ptr %2, ptr %11, align 8, !tbaa !51
  %12 = call align 8 ptr @llvm.threadlocal.address.p0(ptr align 8 @_ZSt11__once_call)
  store ptr @"_ZZNSt9once_flag18_Prepare_executionC1IZSt9call_onceIZN10duckdb_re26Regexp6IncrefEvE3$_0JEEvRS_OT_DpOT0_EUlvE_EERS7_ENUlvE_8__invokeEv", ptr %12, align 8, !tbaa !51
  %13 = invoke noundef i32 @pthread_once(ptr noundef nonnull @_ZZN10duckdb_re26Regexp6IncrefEvE8ref_once, ptr noundef nonnull @__once_proxy)
          to label %_ZL14__gthread_oncePiPFvvE.exit.i unwind label %16

_ZL14__gthread_oncePiPFvvE.exit.i:                ; preds = %10
  %.not.i = icmp eq i32 %13, 0
  br i1 %.not.i, label %"_ZSt9call_onceIZN10duckdb_re26Regexp6IncrefEvE3$_0JEEvRSt9once_flagOT_DpOT0_.exit", label %14

14:                                               ; preds = %_ZL14__gthread_oncePiPFvvE.exit.i
  invoke void @_ZSt20__throw_system_errori(i32 noundef %13) #30
          to label %15 unwind label %16

15:                                               ; preds = %14
  unreachable

common.resume:                                    ; preds = %48, %22, %16
  %common.resume.op = phi { ptr, i32 } [ %17, %16 ], [ %23, %22 ], [ %.pn, %48 ]
  resume { ptr, i32 } %common.resume.op

16:                                               ; preds = %14, %10
  %17 = landingpad { ptr, i32 }
          cleanup
  store ptr null, ptr %11, align 8, !tbaa !51
  store ptr null, ptr %12, align 8, !tbaa !51
  call void @llvm.lifetime.end.p0(i64 8, ptr nonnull %2) #27
  br label %common.resume

"_ZSt9call_onceIZN10duckdb_re26Regexp6IncrefEvE3$_0JEEvRSt9once_flagOT_DpOT0_.exit": ; preds = %_ZL14__gthread_oncePiPFvvE.exit.i
  store ptr null, ptr %11, align 8, !tbaa !51
  store ptr null, ptr %12, align 8, !tbaa !51
  call void @llvm.lifetime.end.p0(i64 8, ptr nonnull %2) #27
  call void @llvm.lifetime.end.p0(i64 1, ptr nonnull %3) #27
  call void @llvm.lifetime.start.p0(i64 8, ptr nonnull %4) #27
  store ptr @_ZN10duckdb_re2L11ref_storageE, ptr %4, align 8, !tbaa !38
  %18 = call i32 @pthread_rwlock_wrlock(ptr noundef nonnull align 8 dereferenceable(56) @_ZN10duckdb_re2L11ref_storageE) #27
  %.not.i.i = icmp eq i32 %18, 0
  br i1 %.not.i.i, label %_ZN10duckdb_re29MutexLockC2EPNS_5MutexE.exit, label %19

19:                                               ; preds = %"_ZSt9call_onceIZN10duckdb_re26Regexp6IncrefEvE3$_0JEEvRSt9once_flagOT_DpOT0_.exit"
  %20 = call ptr @__cxa_allocate_exception(i64 16) #27
  invoke void @_ZNSt13runtime_errorC1EPKc(ptr noundef nonnull align 8 dereferenceable(16) %20, ptr noundef nonnull @.str.4)
          to label %21 unwind label %22

21:                                               ; preds = %19
  call void @__cxa_throw(ptr nonnull %20, ptr nonnull @_ZTISt13runtime_error, ptr nonnull @_ZNSt13runtime_errorD1Ev) #30
  unreachable

22:                                               ; preds = %19
  %23 = landingpad { ptr, i32 }
          cleanup
  call void @__cxa_free_exception(ptr nonnull %20) #27
  br label %common.resume

_ZN10duckdb_re29MutexLockC2EPNS_5MutexE.exit:     ; preds = %"_ZSt9call_onceIZN10duckdb_re26Regexp6IncrefEvE3$_0JEEvRSt9once_flagOT_DpOT0_.exit"
  %24 = load i16, ptr %7, align 4, !tbaa !12
  %25 = icmp eq i16 %24, -1
  br i1 %25, label %26, label %33

26:                                               ; preds = %_ZN10duckdb_re29MutexLockC2EPNS_5MutexE.exit
  call void @llvm.lifetime.start.p0(i64 8, ptr nonnull %5) #27
  store ptr %0, ptr %5, align 8, !tbaa !41
  %27 = invoke noundef nonnull align 4 dereferenceable(4) ptr @_ZNSt3mapIPN10duckdb_re26RegexpEiSt4lessIS2_ESaISt4pairIKS2_iEEEixEOS2_(ptr noundef nonnull align 8 dereferenceable(48) getelementptr inbounds nuw (i8, ptr @_ZN10duckdb_re2L11ref_storageE, i64 56), ptr noundef nonnull align 8 dereferenceable(8) %5)
          to label %28 unwind label %31

28:                                               ; preds = %26
  %29 = load i32, ptr %27, align 4, !tbaa !42
  %30 = add nsw i32 %29, 1
  store i32 %30, ptr %27, align 4, !tbaa !42
  call void @llvm.lifetime.end.p0(i64 8, ptr nonnull %5) #27
  br label %38

31:                                               ; preds = %26
  %32 = landingpad { ptr, i32 }
          cleanup
  call void @llvm.lifetime.end.p0(i64 8, ptr nonnull %5) #27
  br label %48

33:                                               ; preds = %_ZN10duckdb_re29MutexLockC2EPNS_5MutexE.exit
  call void @llvm.lifetime.start.p0(i64 8, ptr nonnull %6) #27
  store ptr %0, ptr %6, align 8, !tbaa !41
  %34 = invoke noundef nonnull align 4 dereferenceable(4) ptr @_ZNSt3mapIPN10duckdb_re26RegexpEiSt4lessIS2_ESaISt4pairIKS2_iEEEixEOS2_(ptr noundef nonnull align 8 dereferenceable(48) getelementptr inbounds nuw (i8, ptr @_ZN10duckdb_re2L11ref_storageE, i64 56), ptr noundef nonnull align 8 dereferenceable(8) %6)
          to label %35 unwind label %36

35:                                               ; preds = %33
  store i32 65535, ptr %34, align 4, !tbaa !42
  call void @llvm.lifetime.end.p0(i64 8, ptr nonnull %6) #27
  store i16 -1, ptr %7, align 4, !tbaa !12
  br label %38

36:                                               ; preds = %33
  %37 = landingpad { ptr, i32 }
          cleanup
  call void @llvm.lifetime.end.p0(i64 8, ptr nonnull %6) #27
  br label %48

38:                                               ; preds = %35, %28
  %39 = call i32 @pthread_rwlock_unlock(ptr noundef nonnull align 8 dereferenceable(56) @_ZN10duckdb_re2L11ref_storageE) #27
  %.not.i.i6 = icmp eq i32 %39, 0
  br i1 %.not.i.i6, label %_ZN10duckdb_re29MutexLockD2Ev.exit, label %40

40:                                               ; preds = %38
  %41 = call ptr @__cxa_allocate_exception(i64 16) #27
  invoke void @_ZNSt13runtime_errorC1EPKc(ptr noundef nonnull align 8 dereferenceable(16) %41, ptr noundef nonnull @.str.4)
          to label %42 unwind label %43

42:                                               ; preds = %40
  invoke void @__cxa_throw(ptr nonnull %41, ptr nonnull @_ZTISt13runtime_error, ptr nonnull @_ZNSt13runtime_errorD1Ev) #30
          to label %.noexc.i unwind label %45

.noexc.i:                                         ; preds = %42
  unreachable

43:                                               ; preds = %40
  %44 = landingpad { ptr, i32 }
          catch ptr null
  call void @__cxa_free_exception(ptr nonnull %41) #27
  br label %.body.i

45:                                               ; preds = %42
  %46 = landingpad { ptr, i32 }
          catch ptr null
  br label %.body.i

.body.i:                                          ; preds = %45, %43
  %eh.lpad-body.i = phi { ptr, i32 } [ %46, %45 ], [ %44, %43 ]
  %47 = extractvalue { ptr, i32 } %eh.lpad-body.i, 0
  call void @__clang_call_terminate(ptr %47) #29
  unreachable

_ZN10duckdb_re29MutexLockD2Ev.exit:               ; preds = %38
  call void @llvm.lifetime.end.p0(i64 8, ptr nonnull %4) #27
  br label %51

48:                                               ; preds = %36, %31
  %.pn = phi { ptr, i32 } [ %32, %31 ], [ %37, %36 ]
  call void @_ZN10duckdb_re29MutexLockD2Ev(ptr noundef nonnull align 8 dereferenceable(8) %4) #27
  call void @llvm.lifetime.end.p0(i64 8, ptr nonnull %4) #27
  br label %common.resume

49:                                               ; preds = %1
  %50 = add nuw i16 %8, 1
  store i16 %50, ptr %7, align 4, !tbaa !12
  br label %51

51:                                               ; preds = %49, %_ZN10duckdb_re29MutexLockD2Ev.exit
  ret ptr %0
}